target datalayout = "e-m:e-p270:32:32-p271:32:32-p272:64:64-i64:64-i128:128-f80:128-n8:16:32:64-S128"
target triple = "x86_64-pc-linux-gnu"

%struct.ExprEvalStep = type { i64, ptr, ptr, %union.anon }
%union.anon = type { %struct.anon.23 }
%struct.anon.23 = type { ptr, ptr, i32, i32, ptr, ptr }
%struct.ExprState = type { i32, i8, i8, i64, ptr, ptr, ptr, ptr, ptr, i32, i32, ptr, ptr, ptr, ptr, ptr, ptr, ptr }
%struct.Node = type { i32 }
%struct.ExprSetupInfo = type { i16, i16, i16, i16, i16, ptr }
%struct.ForEachState = type { ptr, i32 }
%struct.List = type { i32, i32, i32, ptr, [0 x %union.ListCell] }
%union.ListCell = type { ptr }
%struct.anon.8 = type { i32 }

; Function Attrs: nounwind uwtable
define internal void @ExecReadyExpr(ptr noundef %0) #0 {
  %2 = alloca ptr, align 8
  store ptr %0, ptr %2, align 8
  %3 = load ptr, ptr %2, align 8
  %4 = call zeroext i1 @jit_compile_expr(ptr noundef %3)
  br i1 %4, label %5, label %6

5:                                                ; preds = %1
  br label %8

6:                                                ; preds = %1
  %7 = load ptr, ptr %2, align 8
  call void @ExecReadyInterpretedExpr(ptr noundef %7)
  br label %8

8:                                                ; preds = %6, %5
  ret void
}

; Function Attrs: nounwind uwtable
define dso_local void @ExprEvalPushStep(ptr noundef %0, ptr noundef %1) #0 {
  %3 = alloca ptr, align 8
  %4 = alloca ptr, align 8
  store ptr %0, ptr %3, align 8
  store ptr %1, ptr %4, align 8
  %5 = load ptr, ptr %3, align 8
  %6 = getelementptr inbounds nuw %struct.ExprState, ptr %5, i32 0, i32 10
  %7 = load i32, ptr %6, align 4
  %8 = icmp eq i32 %7, 0
  br i1 %8, label %9, label %20

9:                                                ; preds = %2
  %10 = load ptr, ptr %3, align 8
  %11 = getelementptr inbounds nuw %struct.ExprState, ptr %10, i32 0, i32 10
  store i32 16, ptr %11, align 4
  %12 = load ptr, ptr %3, align 8
  %13 = getelementptr inbounds nuw %struct.ExprState, ptr %12, i32 0, i32 10
  %14 = load i32, ptr %13, align 4
  %15 = sext i32 %14 to i64
  %16 = mul i64 64, %15
  %17 = call ptr @palloc(i64 noundef %16)
  %18 = load ptr, ptr %3, align 8
  %19 = getelementptr inbounds nuw %struct.ExprState, ptr %18, i32 0, i32 5
  store ptr %17, ptr %19, align 8
  br label %45

20:                                               ; preds = %2
  %21 = load ptr, ptr %3, align 8
  %22 = getelementptr inbounds nuw %struct.ExprState, ptr %21, i32 0, i32 10
  %23 = load i32, ptr %22, align 4
  %24 = load ptr, ptr %3, align 8
  %25 = getelementptr inbounds nuw %struct.ExprState, ptr %24, i32 0, i32 9
  %26 = load i32, ptr %25, align 8
  %27 = icmp eq i32 %23, %26
  br i1 %27, label %28, label %44

28:                                               ; preds = %20
  %29 = load ptr, ptr %3, align 8
  %30 = getelementptr inbounds nuw %struct.ExprState, ptr %29, i32 0, i32 10
  %31 = load i32, ptr %30, align 4
  %32 = mul i32 %31, 2
  store i32 %32, ptr %30, align 4
  %33 = load ptr, ptr %3, align 8
  %34 = getelementptr inbounds nuw %struct.ExprState, ptr %33, i32 0, i32 5
  %35 = load ptr, ptr %34, align 8
  %36 = load ptr, ptr %3, align 8
  %37 = getelementptr inbounds nuw %struct.ExprState, ptr %36, i32 0, i32 10
  %38 = load i32, ptr %37, align 4
  %39 = sext i32 %38 to i64
  %40 = mul i64 64, %39
  %41 = call ptr @repalloc(ptr noundef %35, i64 noundef %40)
  %42 = load ptr, ptr %3, align 8
  %43 = getelementptr inbounds nuw %struct.ExprState, ptr %42, i32 0, i32 5
  store ptr %41, ptr %43, align 8
  br label %44

44:                                               ; preds = %28, %20
  br label %45

45:                                               ; preds = %44, %9
  %46 = load ptr, ptr %3, align 8
  %47 = getelementptr inbounds nuw %struct.ExprState, ptr %46, i32 0, i32 5
  %48 = load ptr, ptr %47, align 8
  %49 = load ptr, ptr %3, align 8
  %50 = getelementptr inbounds nuw %struct.ExprState, ptr %49, i32 0, i32 9
  %51 = load i32, ptr %50, align 8
  %52 = add i32 %51, 1
  store i32 %52, ptr %50, align 8
  %53 = sext i32 %51 to i64
  %54 = getelementptr inbounds %struct.ExprEvalStep, ptr %48, i64 %53
  %55 = load ptr, ptr %4, align 8
  call void @llvm.memcpy.p0.p0.i64(ptr align 8 %54, ptr align 8 %55, i64 64, i1 false)
  ret void
}

; Function Attrs: nounwind uwtable
define internal void @ExecCreateExprSetupSteps(ptr noundef %0, ptr noundef %1) #0 {
  %3 = alloca ptr, align 8
  %4 = alloca ptr, align 8
  %5 = alloca %struct.ExprSetupInfo, align 8
  store ptr %0, ptr %3, align 8
  store ptr %1, ptr %4, align 8
  call void @llvm.lifetime.start.p0(i64 24, ptr %5) #8
  call void @llvm.memset.p0.i64(ptr align 8 %5, i8 0, i64 24, i1 false)
  %6 = load ptr, ptr %4, align 8
  %7 = call zeroext i1 @expr_setup_walker(ptr noundef %6, ptr noundef %5)
  %8 = load ptr, ptr %3, align 8
  call void @ExecPushExprSetupSteps(ptr noundef %8, ptr noundef %5)
  call void @llvm.lifetime.end.p0(i64 24, ptr %5) #8
  ret void
}

; Function Attrs: inlinehint nounwind uwtable
define internal ptr @newNode(i64 noundef %0, i32 noundef %1) #3 {
  %3 = alloca i64, align 8
  %4 = alloca i32, align 4
  %5 = alloca ptr, align 8
  store i64 %0, ptr %3, align 8
  store i32 %1, ptr %4, align 4
  call void @llvm.lifetime.start.p0(i64 8, ptr %5) #8
  %6 = load i64, ptr %3, align 8
  %7 = call ptr @palloc0(i64 noundef %6)
  store ptr %7, ptr %5, align 8
  %8 = load i32, ptr %4, align 4
  %9 = load ptr, ptr %5, align 8
  %10 = getelementptr inbounds nuw %struct.Node, ptr %9, i32 0, i32 0
  store i32 %8, ptr %10, align 4
  %11 = load ptr, ptr %5, align 8
  call void @llvm.lifetime.end.p0(i64 8, ptr %5) #8
  ret ptr %11
}

; Function Attrs: nounwind uwtable
define dso_local ptr @ExecInitQual(ptr noundef %0, ptr noundef %1) #0 {
  %3 = alloca ptr, align 8
  %4 = alloca ptr, align 8
  %5 = alloca ptr, align 8
  %6 = alloca ptr, align 8
  %7 = alloca %struct.ExprEvalStep, align 8
  %8 = alloca ptr, align 8
  %9 = alloca i32, align 4
  %10 = alloca ptr, align 8
  %11 = alloca ptr, align 8
  %12 = alloca %struct.ForEachState, align 8
  %13 = alloca i32, align 4
  %14 = alloca i32, align 4
  %15 = alloca %struct.ForEachState, align 8
  %16 = alloca ptr, align 8
  store ptr %0, ptr %4, align 8
  store ptr %1, ptr %5, align 8
  call void @llvm.lifetime.start.p0(i64 8, ptr %6) #8
  call void @llvm.lifetime.start.p0(i64 64, ptr %7) #8
  call void @llvm.memset.p0.i64(ptr align 8 %7, i8 0, i64 64, i1 false)
  call void @llvm.lifetime.start.p0(i64 8, ptr %8) #8
  store ptr null, ptr %8, align 8
  %17 = load ptr, ptr %4, align 8
  %18 = icmp eq ptr %17, null
  br i1 %18, label %19, label %20

19:                                               ; preds = %2
  store ptr null, ptr %3, align 8
  store i32 1, ptr %9, align 4
  br label %156

20:                                               ; preds = %2
  %21 = call ptr @newNode(i64 noundef 120, i32 noundef 379)
  store ptr %21, ptr %6, align 8
  %22 = load ptr, ptr %4, align 8
  %23 = load ptr, ptr %6, align 8
  %24 = getelementptr inbounds nuw %struct.ExprState, ptr %23, i32 0, i32 7
  store ptr %22, ptr %24, align 8
  %25 = load ptr, ptr %5, align 8
  %26 = load ptr, ptr %6, align 8
  %27 = getelementptr inbounds nuw %struct.ExprState, ptr %26, i32 0, i32 11
  store ptr %25, ptr %27, align 8
  %28 = load ptr, ptr %6, align 8
  %29 = getelementptr inbounds nuw %struct.ExprState, ptr %28, i32 0, i32 12
  store ptr null, ptr %29, align 8
  %30 = load ptr, ptr %6, align 8
  %31 = getelementptr inbounds nuw %struct.ExprState, ptr %30, i32 0, i32 1
  store i8 1, ptr %31, align 4
  %32 = load ptr, ptr %6, align 8
  %33 = load ptr, ptr %4, align 8
  call void @ExecCreateExprSetupSteps(ptr noundef %32, ptr noundef %33)
  %34 = getelementptr inbounds nuw %struct.ExprEvalStep, ptr %7, i32 0, i32 0
  store i64 36, ptr %34, align 8
  %35 = load ptr, ptr %6, align 8
  %36 = getelementptr inbounds nuw %struct.ExprState, ptr %35, i32 0, i32 3
  %37 = getelementptr inbounds nuw %struct.ExprEvalStep, ptr %7, i32 0, i32 1
  store ptr %36, ptr %37, align 8
  %38 = load ptr, ptr %6, align 8
  %39 = getelementptr inbounds nuw %struct.ExprState, ptr %38, i32 0, i32 2
  %40 = getelementptr inbounds nuw %struct.ExprEvalStep, ptr %7, i32 0, i32 2
  store ptr %39, ptr %40, align 8
  call void @llvm.lifetime.start.p0(i64 8, ptr %10) #8
  store ptr null, ptr %10, align 8
  call void @llvm.lifetime.start.p0(i64 8, ptr %11) #8
  store ptr inttoptr (i64 1 to ptr), ptr %11, align 8
  br label %41

41:                                               ; preds = %96, %20
  %42 = load ptr, ptr %11, align 8
  %43 = icmp ne ptr %42, null
  br i1 %43, label %45, label %44

44:                                               ; preds = %41
  store i32 2, ptr %9, align 4
  call void @llvm.lifetime.end.p0(i64 8, ptr %11) #8
  call void @llvm.lifetime.end.p0(i64 8, ptr %10) #8
  br label %97

45:                                               ; preds = %41
  call void @llvm.lifetime.start.p0(i64 16, ptr %12) #8
  %46 = getelementptr inbounds nuw %struct.ForEachState, ptr %12, i32 0, i32 0
  %47 = load ptr, ptr %4, align 8
  store ptr %47, ptr %46, align 8
  %48 = getelementptr inbounds nuw %struct.ForEachState, ptr %12, i32 0, i32 1
  store i32 0, ptr %48, align 8
  %49 = getelementptr i8, ptr %12, i64 12
  call void @llvm.memset.p0.i64(ptr align 4 %49, i8 0, i64 4, i1 false)
  br label %50

50:                                               ; preds = %91, %45
  %51 = getelementptr inbounds nuw %struct.ForEachState, ptr %12, i32 0, i32 0
  %52 = load ptr, ptr %51, align 8
  %53 = icmp ne ptr %52, null
  br i1 %53, label %54, label %72

54:                                               ; preds = %50
  %55 = getelementptr inbounds nuw %struct.ForEachState, ptr %12, i32 0, i32 1
  %56 = load i32, ptr %55, align 8
  %57 = getelementptr inbounds nuw %struct.ForEachState, ptr %12, i32 0, i32 0
  %58 = load ptr, ptr %57, align 8
  %59 = getelementptr inbounds nuw %struct.List, ptr %58, i32 0, i32 1
  %60 = load i32, ptr %59, align 4
  %61 = icmp slt i32 %56, %60
  br i1 %61, label %62, label %72

62:                                               ; preds = %54
  %63 = getelementptr inbounds nuw %struct.ForEachState, ptr %12, i32 0, i32 0
  %64 = load ptr, ptr %63, align 8
  %65 = getelementptr inbounds nuw %struct.List, ptr %64, i32 0, i32 3
  %66 = load ptr, ptr %65, align 8
  %67 = getelementptr inbounds nuw %struct.ForEachState, ptr %12, i32 0, i32 1
  %68 = load i32, ptr %67, align 8
  %69 = sext i32 %68 to i64
  %70 = getelementptr inbounds %union.ListCell, ptr %66, i64 %69
  %71 = load ptr, ptr %70, align 8
  store ptr %71, ptr %10, align 8
  br label %72

72:                                               ; preds = %62, %54, %50
  %73 = phi i1 [ false, %54 ], [ false, %50 ], [ true, %62 ]
  br i1 %73, label %75, label %74

74:                                               ; preds = %72
  store i32 5, ptr %9, align 4
  call void @llvm.lifetime.end.p0(i64 16, ptr %12) #8
  br label %95

75:                                               ; preds = %72
  %76 = load ptr, ptr %10, align 8
  %77 = load ptr, ptr %6, align 8
  %78 = load ptr, ptr %6, align 8
  %79 = getelementptr inbounds nuw %struct.ExprState, ptr %78, i32 0, i32 3
  %80 = load ptr, ptr %6, align 8
  %81 = getelementptr inbounds nuw %struct.ExprState, ptr %80, i32 0, i32 2
  call void @ExecInitExprRec(ptr noundef %76, ptr noundef %77, ptr noundef %79, ptr noundef %81)
  %82 = getelementptr inbounds nuw %struct.ExprEvalStep, ptr %7, i32 0, i32 3
  %83 = getelementptr inbounds nuw %struct.anon.8, ptr %82, i32 0, i32 0
  store i32 -1, ptr %83, align 8
  %84 = load ptr, ptr %6, align 8
  call void @ExprEvalPushStep(ptr noundef %84, ptr noundef %7)
  %85 = load ptr, ptr %8, align 8
  %86 = load ptr, ptr %6, align 8
  %87 = getelementptr inbounds nuw %struct.ExprState, ptr %86, i32 0, i32 9
  %88 = load i32, ptr %87, align 8
  %89 = sub i32 %88, 1
  %90 = call ptr @lappend_int(ptr noundef %85, i32 noundef %89)
  store ptr %90, ptr %8, align 8
  br label %91

91:                                               ; preds = %75
  %92 = getelementptr inbounds nuw %struct.ForEachState, ptr %12, i32 0, i32 1
  %93 = load i32, ptr %92, align 8
  %94 = add i32 %93, 1
  store i32 %94, ptr %92, align 8
  br label %50, !llvm.loop !23

95:                                               ; preds = %74
  br label %96

96:                                               ; preds = %95
  store ptr null, ptr %11, align 8
  br label %41, !llvm.loop !24

97:                                               ; preds = %44
  call void @llvm.lifetime.start.p0(i64 4, ptr %13) #8
  store i32 0, ptr %13, align 4
  call void @llvm.lifetime.start.p0(i64 4, ptr %14) #8
  store i32 1, ptr %14, align 4
  br label %98

98:                                               ; preds = %150, %97
  %99 = load i32, ptr %14, align 4
  %100 = icmp ne i32 %99, 0
  br i1 %100, label %102, label %101

101:                                              ; preds = %98
  store i32 8, ptr %9, align 4
  call void @llvm.lifetime.end.p0(i64 4, ptr %14) #8
  call void @llvm.lifetime.end.p0(i64 4, ptr %13) #8
  br label %151

102:                                              ; preds = %98
  call void @llvm.lifetime.start.p0(i64 16, ptr %15) #8
  %103 = getelementptr inbounds nuw %struct.ForEachState, ptr %15, i32 0, i32 0
  %104 = load ptr, ptr %8, align 8
  store ptr %104, ptr %103, align 8
  %105 = getelementptr inbounds nuw %struct.ForEachState, ptr %15, i32 0, i32 1
  store i32 0, ptr %105, align 8
  %106 = getelementptr i8, ptr %15, i64 12
  call void @llvm.memset.p0.i64(ptr align 4 %106, i8 0, i64 4, i1 false)
  br label %107

107:                                              ; preds = %145, %102
  %108 = getelementptr inbounds nuw %struct.ForEachState, ptr %15, i32 0, i32 0
  %109 = load ptr, ptr %108, align 8
  %110 = icmp ne ptr %109, null
  br i1 %110, label %111, label %129

111:                                              ; preds = %107
  %112 = getelementptr inbounds nuw %struct.ForEachState, ptr %15, i32 0, i32 1
  %113 = load i32, ptr %112, align 8
  %114 = getelementptr inbounds nuw %struct.ForEachState, ptr %15, i32 0, i32 0
  %115 = load ptr, ptr %114, align 8
  %116 = getelementptr inbounds nuw %struct.List, ptr %115, i32 0, i32 1
  %117 = load i32, ptr %116, align 4
  %118 = icmp slt i32 %113, %117
  br i1 %118, label %119, label %129

119:                                              ; preds = %111
  %120 = getelementptr inbounds nuw %struct.ForEachState, ptr %15, i32 0, i32 0
  %121 = load ptr, ptr %120, align 8
  %122 = getelementptr inbounds nuw %struct.List, ptr %121, i32 0, i32 3
  %123 = load ptr, ptr %122, align 8
  %124 = getelementptr inbounds nuw %struct.ForEachState, ptr %15, i32 0, i32 1
  %125 = load i32, ptr %124, align 8
  %126 = sext i32 %125 to i64
  %127 = getelementptr inbounds %union.ListCell, ptr %123, i64 %126
  %128 = load i32, ptr %127, align 8
  store i32 %128, ptr %13, align 4
  br label %129

129:                                              ; preds = %119, %111, %107
  %130 = phi i1 [ false, %111 ], [ false, %107 ], [ true, %119 ]
  br i1 %130, label %132, label %131

131:                                              ; preds = %129
  store i32 11, ptr %9, align 4
  call void @llvm.lifetime.end.p0(i64 16, ptr %15) #8
  br label %149

132:                                              ; preds = %129
  call void @llvm.lifetime.start.p0(i64 8, ptr %16) #8
  %133 = load ptr, ptr %6, align 8
  %134 = getelementptr inbounds nuw %struct.ExprState, ptr %133, i32 0, i32 5
  %135 = load ptr, ptr %134, align 8
  %136 = load i32, ptr %13, align 4
  %137 = sext i32 %136 to i64
  %138 = getelementptr inbounds %struct.ExprEvalStep, ptr %135, i64 %137
  store ptr %138, ptr %16, align 8
  %139 = load ptr, ptr %6, align 8
  %140 = getelementptr inbounds nuw %struct.ExprState, ptr %139, i32 0, i32 9
  %141 = load i32, ptr %140, align 8
  %142 = load ptr, ptr %16, align 8
  %143 = getelementptr inbounds nuw %struct.ExprEvalStep, ptr %142, i32 0, i32 3
  %144 = getelementptr inbounds nuw %struct.anon.8, ptr %143, i32 0, i32 0
  store i32 %141, ptr %144, align 8
  call void @llvm.lifetime.end.p0(i64 8, ptr %16) #8
  br label %145

145:                                              ; preds = %132
  %146 = getelementptr inbounds nuw %struct.ForEachState, ptr %15, i32 0, i32 1
  %147 = load i32, ptr %146, align 8
  %148 = add i32 %147, 1
  store i32 %148, ptr %146, align 8
  br label %107, !llvm.loop !25

149:                                              ; preds = %131
  br label %150

150:                                              ; preds = %149
  store i32 0, ptr %14, align 4
  br label %98, !llvm.loop !26

151:                                              ; preds = %101
  %152 = getelementptr inbounds nuw %struct.ExprEvalStep, ptr %7, i32 0, i32 0
  store i64 0, ptr %152, align 8
  %153 = load ptr, ptr %6, align 8
  call void @ExprEvalPushStep(ptr noundef %153, ptr noundef %7)
  %154 = load ptr, ptr %6, align 8
  call void @ExecReadyExpr(ptr noundef %154)
  %155 = load ptr, ptr %6, align 8
  store ptr %155, ptr %3, align 8
  store i32 1, ptr %9, align 4
  br label %156

156:                                              ; preds = %151, %19
  call void @llvm.lifetime.end.p0(i64 8, ptr %8) #8
  call void @llvm.lifetime.end.p0(i64 64, ptr %7) #8
  call void @llvm.lifetime.end.p0(i64 8, ptr %6) #8
  %157 = load ptr, ptr %3, align 8
  ret ptr %157
}